; Function Attrs: mustprogress nofree norecurse nosync nounwind willreturn memory(argmem: read) uwtable
define noundef zeroext i1 @_ZNK7openvdb5v11_02io19DelayedLoadMetadata5emptyEv(ptr nocapture noundef nonnull readonly align 8 dereferenceable(56) %this) local_unnamed_addr #11 align 2 {
entry:
  %mMask = getelementptr inbounds i8, ptr %this, i64 8
  %0 = load ptr, ptr %mMask, align 8
  %_M_finish.i.i = getelementptr inbounds i8, ptr %this, i64 16
  %1 = load ptr, ptr %_M_finish.i.i, align 8
  %cmp.i.i = icmp eq ptr %0, %1
  %mCompressedSize = getelementptr inbounds i8, ptr %this, i64 32
  %2 = load ptr, ptr %mCompressedSize, align 8
  %_M_finish.i.i1 = getelementptr inbounds i8, ptr %this, i64 40
  %3 = load ptr, ptr %_M_finish.i.i1, align 8
  %cmp.i.i2 = icmp eq ptr %2, %3
  %4 = select i1 %cmp.i.i, i1 %cmp.i.i2, i1 false
  ret i1 %4
}